target datalayout = "e-m:e-p270:32:32-p271:32:32-p272:64:64-i64:64-i128:128-f80:128-n8:16:32:64-S128"
target triple = "x86_64-pc-linux-gnu"

@Curl_cfree = external global ptr, align 8

; Function Attrs: nounwind uwtable
define internal i32 @urldecode_host(ptr noundef %0) #0 {
  %2 = alloca i32, align 4
  %3 = alloca ptr, align 8
  %4 = alloca ptr, align 8
  %5 = alloca ptr, align 8
  %6 = alloca i64, align 8
  %7 = alloca ptr, align 8
  %8 = alloca i32, align 4
  store ptr %0, ptr %3, align 8
  store ptr null, ptr %4, align 8
  %9 = load ptr, ptr %3, align 8
  %10 = call ptr @Curl_dyn_ptr(ptr noundef %9)
  store ptr %10, ptr %5, align 8
  %11 = load ptr, ptr %5, align 8
  %12 = call ptr @strchr(ptr noundef %11, i32 noundef 37) #7
  store ptr %12, ptr %4, align 8
  %13 = load ptr, ptr %4, align 8
  %14 = icmp ne ptr %13, null
  br i1 %14, label %16, label %15

15:                                               ; preds = %1
  store i32 0, ptr %2, align 4
  br label %38

16:                                               ; preds = %1
  %17 = load ptr, ptr %5, align 8
  %18 = call i32 @Curl_urldecode(ptr noundef %17, i64 noundef 0, ptr noundef %7, ptr noundef %6, i32 noundef 3)
  store i32 %18, ptr %8, align 4
  %19 = load i32, ptr %8, align 4
  %20 = icmp ne i32 %19, 0
  br i1 %20, label %21, label %22

21:                                               ; preds = %16
  store i32 21, ptr %2, align 4
  br label %38

22:                                               ; preds = %16
  %23 = load ptr, ptr %3, align 8
  call void @Curl_dyn_reset(ptr noundef %23)
  %24 = load ptr, ptr %3, align 8
  %25 = load ptr, ptr %7, align 8
  %26 = load i64, ptr %6, align 8
  %27 = call i32 @Curl_dyn_addn(ptr noundef %24, ptr noundef %25, i64 noundef %26)
  store i32 %27, ptr %8, align 4
  %28 = load ptr, ptr @Curl_cfree, align 8
  %29 = load ptr, ptr %7, align 8
  call void %28(ptr noundef %29)
  %30 = load i32, ptr %8, align 4
  %31 = icmp ne i32 %30, 0
  br i1 %31, label %32, label %36

32:                                               ; preds = %22
  %33 = load i32, ptr %8, align 4
  %34 = icmp eq i32 %33, 100
  %35 = select i1 %34, i32 31, i32 7
  store i32 %35, ptr %2, align 4
  br label %38

36:                                               ; preds = %22
  br label %37

37:                                               ; preds = %36
  store i32 0, ptr %2, align 4
  br label %38

38:                                               ; preds = %37, %32, %21, %15
  %39 = load i32, ptr %2, align 4
  ret i32 %39
}