; Function Attrs: nounwind uwtable
define internal fastcc range(i32 0, 32) i32 @urldecode_host(ptr noundef nonnull %0) unnamed_addr #0 {
  %2 = alloca i64, align 8
  %3 = alloca ptr, align 8
  %4 = tail call ptr @Curl_dyn_ptr(ptr noundef nonnull %0) #10
  %5 = tail call ptr @strchr(ptr noundef nonnull dereferenceable(1) %4, i32 noundef 37) #11
  %.not = icmp eq ptr %5, null
  br i1 %.not, label %17, label %6

6:                                                ; preds = %1
  %7 = call i32 @Curl_urldecode(ptr noundef nonnull %4, i64 noundef 0, ptr noundef nonnull %3, ptr noundef nonnull %2, i32 noundef 3) #10
  %.not10 = icmp eq i32 %7, 0
  br i1 %.not10, label %8, label %17

8:                                                ; preds = %6
  call void @Curl_dyn_reset(ptr noundef nonnull %0) #10
  %9 = load ptr, ptr %3, align 8
  %10 = load i64, ptr %2, align 8
  %11 = call i32 @Curl_dyn_addn(ptr noundef nonnull %0, ptr noundef %9, i64 noundef %10) #10
  %12 = load ptr, ptr @Curl_cfree, align 8
  %13 = load ptr, ptr %3, align 8
  call void %12(ptr noundef %13) #10
  %.not11 = icmp eq i32 %11, 0
  br i1 %.not11, label %17, label %14

14:                                               ; preds = %8
  %15 = icmp eq i32 %11, 100
  %16 = select i1 %15, i32 31, i32 7
  br label %17

17:                                               ; preds = %8, %6, %1, %14
  %.0 = phi i32 [ %16, %14 ], [ 0, %1 ], [ 21, %6 ], [ 0, %8 ]
  ret i32 %.0
}